target datalayout = "e-m:e-p270:32:32-p271:32:32-p272:64:64-i64:64-i128:128-f80:128-n8:16:32:64-S128"
target triple = "x86_64-pc-linux-gnu"

%"class.duckdb_re2::Regexp" = type { i8, i8, i16, i16, i16, %union.anon, ptr, %union.anon.0 }
%union.anon = type { ptr }
%union.anon.0 = type { %struct.anon.1 }
%struct.anon.1 = type { i32, ptr }
%struct.anon = type { i32, i32 }

; Function Attrs: inlinehint mustprogress nounwind uwtable
define linkonce_odr hidden noundef i32 @_ZN10duckdb_re2anENS_6Regexp10ParseFlagsES1_(i32 noundef %0, i32 noundef %1) #3 comdat {
  %3 = alloca i32, align 4
  %4 = alloca i32, align 4
  store i32 %0, ptr %3, align 4, !tbaa !25
  store i32 %1, ptr %4, align 4, !tbaa !25
  %5 = load i32, ptr %3, align 4, !tbaa !25
  %6 = load i32, ptr %4, align 4, !tbaa !25
  %7 = and i32 %5, %6
  ret i32 %7
}

; Function Attrs: mustprogress nounwind uwtable
define linkonce_odr hidden noundef i32 @_ZN10duckdb_re26Regexp11parse_flagsEv(ptr noundef nonnull align 8 dereferenceable(40) %0) #2 comdat align 2 {
  %2 = alloca ptr, align 8
  store ptr %0, ptr %2, align 8, !tbaa !8
  %3 = load ptr, ptr %2, align 8
  %4 = getelementptr inbounds nuw %"class.duckdb_re2::Regexp", ptr %3, i32 0, i32 2
  %5 = load i16, ptr %4, align 2, !tbaa !27
  %6 = zext i16 %5 to i32
  ret i32 %6
}

; Function Attrs: mustprogress nounwind uwtable
define linkonce_odr hidden noundef i32 @_ZN10duckdb_re26Regexp4runeEv(ptr noundef nonnull align 8 dereferenceable(40) %0) #2 comdat align 2 {
  %2 = alloca ptr, align 8
  store ptr %0, ptr %2, align 8, !tbaa !8
  %3 = load ptr, ptr %2, align 8
  %4 = getelementptr inbounds nuw %"class.duckdb_re2::Regexp", ptr %3, i32 0, i32 7
  %5 = load i32, ptr %4, align 8, !tbaa !24
  ret i32 %5
}

; Function Attrs: mustprogress nounwind uwtable
define linkonce_odr hidden noundef i32 @_ZN10duckdb_re26Regexp3maxEv(ptr noundef nonnull align 8 dereferenceable(40) %0) #2 comdat align 2 {
  %2 = alloca ptr, align 8
  store ptr %0, ptr %2, align 8, !tbaa !8
  %3 = load ptr, ptr %2, align 8
  %4 = getelementptr inbounds nuw %"class.duckdb_re2::Regexp", ptr %3, i32 0, i32 7
  %5 = getelementptr inbounds nuw %struct.anon, ptr %4, i32 0, i32 0
  %6 = load i32, ptr %5, align 8, !tbaa !24
  ret i32 %6
}

; Function Attrs: mustprogress nounwind uwtable
define linkonce_odr hidden noundef ptr @_ZN10duckdb_re26Regexp3subEv(ptr noundef nonnull align 8 dereferenceable(40) %0) #2 comdat align 2 {
  %2 = alloca ptr, align 8
  %3 = alloca ptr, align 8
  store ptr %0, ptr %3, align 8, !tbaa !8
  %4 = load ptr, ptr %3, align 8
  %5 = getelementptr inbounds nuw %"class.duckdb_re2::Regexp", ptr %4, i32 0, i32 4
  %6 = load i16, ptr %5, align 2, !tbaa !23
  %7 = zext i16 %6 to i32
  %8 = icmp sle i32 %7, 1
  br i1 %8, label %9, label %11

9:                                                ; preds = %1
  %10 = getelementptr inbounds nuw %"class.duckdb_re2::Regexp", ptr %4, i32 0, i32 5
  store ptr %10, ptr %2, align 8
  br label %14

11:                                               ; preds = %1
  %12 = getelementptr inbounds nuw %"class.duckdb_re2::Regexp", ptr %4, i32 0, i32 5
  %13 = load ptr, ptr %12, align 8, !tbaa !24
  store ptr %13, ptr %2, align 8
  br label %14

14:                                               ; preds = %11, %9
  %15 = load ptr, ptr %2, align 8
  ret ptr %15
}

; Function Attrs: mustprogress nounwind uwtable
define linkonce_odr hidden noundef i32 @_ZN10duckdb_re26Regexp2opEv(ptr noundef nonnull align 8 dereferenceable(40) %0) #2 comdat align 2 {
  %2 = alloca ptr, align 8
  store ptr %0, ptr %2, align 8, !tbaa !8
  %3 = load ptr, ptr %2, align 8
  %4 = getelementptr inbounds nuw %"class.duckdb_re2::Regexp", ptr %3, i32 0, i32 0
  %5 = load i8, ptr %4, align 8, !tbaa !20
  %6 = zext i8 %5 to i32
  ret i32 %6
}

; Function Attrs: mustprogress uwtable
define hidden noundef zeroext i1 @_ZN10duckdb_re210PCREWalker9PostVisitEPNS_6RegexpEbbPbi(ptr noundef nonnull align 8 dereferenceable(96) %0, ptr noundef %1, i1 noundef zeroext %2, i1 noundef zeroext %3, ptr noundef %4, i32 noundef %5) unnamed_addr #0 align 2 {
  %7 = alloca i1, align 1
  %8 = alloca ptr, align 8
  %9 = alloca ptr, align 8
  %10 = alloca i8, align 1
  %11 = alloca i8, align 1
  %12 = alloca ptr, align 8
  %13 = alloca i32, align 4
  %14 = alloca i32, align 4
  %15 = alloca i32, align 4
  store ptr %0, ptr %8, align 8, !tbaa !3
  store ptr %1, ptr %9, align 8, !tbaa !8
  %16 = zext i1 %2 to i8
  store i8 %16, ptr %10, align 1, !tbaa !10
  %17 = zext i1 %3 to i8
  store i8 %17, ptr %11, align 1, !tbaa !10
  store ptr %4, ptr %12, align 8, !tbaa !12
  store i32 %5, ptr %13, align 4, !tbaa !14
  call void @llvm.lifetime.start.p0(i64 4, ptr %14) #16
  store i32 0, ptr %14, align 4, !tbaa !14
  br label %18

18:                                               ; preds = %32, %6
  %19 = load i32, ptr %14, align 4, !tbaa !14
  %20 = load i32, ptr %13, align 4, !tbaa !14
  %21 = icmp slt i32 %19, %20
  br i1 %21, label %23, label %22

22:                                               ; preds = %18
  store i32 2, ptr %15, align 4
  br label %35

23:                                               ; preds = %18
  %24 = load ptr, ptr %12, align 8, !tbaa !12
  %25 = load i32, ptr %14, align 4, !tbaa !14
  %26 = sext i32 %25 to i64
  %27 = getelementptr inbounds i8, ptr %24, i64 %26
  %28 = load i8, ptr %27, align 1, !tbaa !10, !range !16, !noundef !17
  %29 = trunc i8 %28 to i1
  br i1 %29, label %31, label %30

30:                                               ; preds = %23
  store i1 false, ptr %7, align 1
  store i32 1, ptr %15, align 4
  br label %35

31:                                               ; preds = %23
  br label %32

32:                                               ; preds = %31
  %33 = load i32, ptr %14, align 4, !tbaa !14
  %34 = add nsw i32 %33, 1
  store i32 %34, ptr %14, align 4, !tbaa !14
  br label %18, !llvm.loop !18

35:                                               ; preds = %30, %22
  call void @llvm.lifetime.end.p0(i64 4, ptr %14) #16
  %36 = load i32, ptr %15, align 4
  switch i32 %36, label %78 [
    i32 2, label %37
    i32 1, label %76
  ]

37:                                               ; preds = %35
  %38 = load ptr, ptr %9, align 8, !tbaa !8
  %39 = call noundef i32 @_ZN10duckdb_re26Regexp2opEv(ptr noundef nonnull align 8 dereferenceable(40) %38)
  switch i32 %39, label %74 [
    i32 7, label %40
    i32 8, label %40
    i32 9, label %40
    i32 10, label %48
    i32 3, label %60
    i32 19, label %66
    i32 2, label %66
    i32 14, label %73
  ]

40:                                               ; preds = %37, %37, %37
  %41 = load ptr, ptr %9, align 8, !tbaa !8
  %42 = call noundef ptr @_ZN10duckdb_re26Regexp3subEv(ptr noundef nonnull align 8 dereferenceable(40) %41)
  %43 = getelementptr inbounds ptr, ptr %42, i64 0
  %44 = load ptr, ptr %43, align 8, !tbaa !8
  %45 = call noundef zeroext i1 @_ZN10duckdb_re2L16CanBeEmptyStringEPNS_6RegexpE(ptr noundef %44)
  br i1 %45, label %46, label %47

46:                                               ; preds = %40
  store i1 false, ptr %7, align 1
  br label %76

47:                                               ; preds = %40
  br label %75

48:                                               ; preds = %37
  %49 = load ptr, ptr %9, align 8, !tbaa !8
  %50 = call noundef i32 @_ZN10duckdb_re26Regexp3maxEv(ptr noundef nonnull align 8 dereferenceable(40) %49)
  %51 = icmp eq i32 %50, -1
  br i1 %51, label %52, label %59

52:                                               ; preds = %48
  %53 = load ptr, ptr %9, align 8, !tbaa !8
  %54 = call noundef ptr @_ZN10duckdb_re26Regexp3subEv(ptr noundef nonnull align 8 dereferenceable(40) %53)
  %55 = getelementptr inbounds ptr, ptr %54, i64 0
  %56 = load ptr, ptr %55, align 8, !tbaa !8
  %57 = call noundef zeroext i1 @_ZN10duckdb_re2L16CanBeEmptyStringEPNS_6RegexpE(ptr noundef %56)
  br i1 %57, label %58, label %59

58:                                               ; preds = %52
  store i1 false, ptr %7, align 1
  br label %76

59:                                               ; preds = %52, %48
  br label %75

60:                                               ; preds = %37
  %61 = load ptr, ptr %9, align 8, !tbaa !8
  %62 = call noundef i32 @_ZN10duckdb_re26Regexp4runeEv(ptr noundef nonnull align 8 dereferenceable(40) %61)
  %63 = icmp eq i32 %62, 11
  br i1 %63, label %64, label %65

64:                                               ; preds = %60
  store i1 false, ptr %7, align 1
  br label %76

65:                                               ; preds = %60
  br label %75

66:                                               ; preds = %37, %37
  %67 = load ptr, ptr %9, align 8, !tbaa !8
  %68 = call noundef i32 @_ZN10duckdb_re26Regexp11parse_flagsEv(ptr noundef nonnull align 8 dereferenceable(40) %67)
  %69 = call noundef i32 @_ZN10duckdb_re2anENS_6Regexp10ParseFlagsES1_(i32 noundef %68, i32 noundef 8192)
  %70 = icmp ne i32 %69, 0
  br i1 %70, label %71, label %72

71:                                               ; preds = %66
  store i1 false, ptr %7, align 1
  br label %76

72:                                               ; preds = %66
  br label %75

73:                                               ; preds = %37
  store i1 false, ptr %7, align 1
  br label %76

74:                                               ; preds = %37
  br label %75

75:                                               ; preds = %74, %72, %65, %59, %47
  store i1 true, ptr %7, align 1
  br label %76

76:                                               ; preds = %75, %73, %71, %64, %58, %46, %35
  %77 = load i1, ptr %7, align 1
  ret i1 %77

78:                                               ; preds = %35
  unreachable
}