; Function Attrs: mustprogress uwtable
define hidden noundef zeroext i1 @_ZN10duckdb_re210PCREWalker9PostVisitEPNS_6RegexpEbbPbi(ptr nonnull readnone align 8 captures(none) %0, ptr noundef readonly captures(none) %1, i1 zeroext %2, i1 zeroext %3, ptr noundef readonly captures(none) %4, i32 noundef %5) unnamed_addr #0 align 2 {
  %7 = icmp sgt i32 %5, 0
  br i1 %7, label %.lr.ph.preheader, label %._crit_edge

.lr.ph.preheader:                                 ; preds = %6
  %wide.trip.count = zext nneg i32 %5 to i64
  br label %.lr.ph

8:                                                ; preds = %.lr.ph
  %indvars.iv.next = add nuw nsw i64 %indvars.iv, 1
  %exitcond.not = icmp eq i64 %indvars.iv.next, %wide.trip.count
  br i1 %exitcond.not, label %._crit_edge, label %.lr.ph, !llvm.loop !3

.lr.ph:                                           ; preds = %.lr.ph.preheader, %8
  %indvars.iv = phi i64 [ 0, %.lr.ph.preheader ], [ %indvars.iv.next, %8 ]
  %9 = getelementptr inbounds nuw i8, ptr %4, i64 %indvars.iv
  %10 = load i8, ptr %9, align 1, !tbaa !5, !range !9, !noundef !10
  %11 = trunc nuw i8 %10 to i1
  br i1 %11, label %8, label %.loopexit

._crit_edge:                                      ; preds = %8, %6
  %12 = load i8, ptr %1, align 8, !tbaa !11
  switch i8 %12, label %41 [
    i8 7, label %13
    i8 8, label %13
    i8 9, label %13
    i8 10, label %21
    i8 3, label %33
    i8 19, label %37
    i8 2, label %37
    i8 14, label %.loopexit
  ]

13:                                               ; preds = %._crit_edge, %._crit_edge, %._crit_edge
  %14 = getelementptr inbounds nuw i8, ptr %1, i64 6
  %15 = load i16, ptr %14, align 2, !tbaa !16
  %16 = icmp ult i16 %15, 2
  %17 = getelementptr inbounds nuw i8, ptr %1, i64 8
  %18 = load ptr, ptr %17, align 8
  %.0.i = select i1 %16, ptr %17, ptr %18
  %19 = load ptr, ptr %.0.i, align 8, !tbaa !17
  %20 = tail call fastcc noundef zeroext i1 @_ZN10duckdb_re2L16CanBeEmptyStringEPNS_6RegexpE(ptr noundef %19)
  br i1 %20, label %.loopexit, label %41

21:                                               ; preds = %._crit_edge
  %22 = getelementptr inbounds nuw i8, ptr %1, i64 24
  %23 = load i32, ptr %22, align 8, !tbaa !18
  %24 = icmp eq i32 %23, -1
  br i1 %24, label %25, label %41

25:                                               ; preds = %21
  %26 = getelementptr inbounds nuw i8, ptr %1, i64 6
  %27 = load i16, ptr %26, align 2, !tbaa !16
  %28 = icmp ult i16 %27, 2
  %29 = getelementptr inbounds nuw i8, ptr %1, i64 8
  %30 = load ptr, ptr %29, align 8
  %.0.i14 = select i1 %28, ptr %29, ptr %30
  %31 = load ptr, ptr %.0.i14, align 8, !tbaa !17
  %32 = tail call fastcc noundef zeroext i1 @_ZN10duckdb_re2L16CanBeEmptyStringEPNS_6RegexpE(ptr noundef %31)
  br i1 %32, label %.loopexit, label %41

33:                                               ; preds = %._crit_edge
  %34 = getelementptr inbounds nuw i8, ptr %1, i64 24
  %35 = load i32, ptr %34, align 8, !tbaa !18
  %36 = icmp eq i32 %35, 11
  br i1 %36, label %.loopexit, label %41

37:                                               ; preds = %._crit_edge, %._crit_edge
  %38 = getelementptr inbounds nuw i8, ptr %1, i64 2
  %39 = load i16, ptr %38, align 2, !tbaa !19
  %40 = and i16 %39, 8192
  %.not = icmp eq i16 %40, 0
  br i1 %.not, label %41, label %.loopexit

41:                                               ; preds = %._crit_edge, %37, %33, %21, %25, %13
  br label %.loopexit

.loopexit:                                        ; preds = %.lr.ph, %._crit_edge, %37, %33, %25, %13, %41
  %.1 = phi i1 [ true, %41 ], [ false, %13 ], [ false, %25 ], [ false, %33 ], [ false, %37 ], [ false, %._crit_edge ], [ false, %.lr.ph ]
  ret i1 %.1
}